target datalayout = "e-m:e-p270:32:32-p271:32:32-p272:64:64-i64:64-i128:128-f80:128-n8:16:32:64-S128"
target triple = "x86_64-pc-linux-gnu"

@.str.1 = private unnamed_addr constant [37 x i8] c"../openssl/test/helpers/ssltestlib.c\00", align 1
@__const.create_a_psk.key = private unnamed_addr constant [48 x i8] c"\00\01\02\03\04\05\06\07\08\09\0A\0B\0C\0D\0E\0F\10\11\12\13\14\15\16\17\18\19\1A\1B\1C\1D\1E\1F !\22#$%&'()*+,-./", align 16
@.str.73 = private unnamed_addr constant [3 x i8] c"\13\02\00", align 1
@.str.74 = private unnamed_addr constant [3 x i8] c"\13\01\00", align 1
@.str.75 = private unnamed_addr constant [5 x i8] c"sess\00", align 1
@.str.76 = private unnamed_addr constant [7 x i8] c"cipher\00", align 1
@.str.77 = private unnamed_addr constant [47 x i8] c"SSL_SESSION_set1_master_key(sess, key, mdsize)\00", align 1
@.str.78 = private unnamed_addr constant [37 x i8] c"SSL_SESSION_set_cipher(sess, cipher)\00", align 1
@.str.79 = private unnamed_addr constant [55 x i8] c"SSL_SESSION_set_protocol_version(sess, TLS1_3_VERSION)\00", align 1

; Function Attrs: nounwind uwtable
define dso_local ptr @create_a_psk(ptr noundef %0, i64 noundef %1) #0 {
  %3 = alloca ptr, align 8
  %4 = alloca ptr, align 8
  %5 = alloca i64, align 8
  %6 = alloca ptr, align 8
  %7 = alloca [48 x i8], align 16
  %8 = alloca ptr, align 8
  %9 = alloca i32, align 4
  store ptr %0, ptr %4, align 8, !tbaa !79
  store i64 %1, ptr %5, align 8, !tbaa !15
  call void @llvm.lifetime.start.p0(i64 8, ptr %6) #10
  store ptr null, ptr %6, align 8, !tbaa !87
  call void @llvm.lifetime.start.p0(i64 48, ptr %7) #10
  call void @llvm.memcpy.p0.p0.i64(ptr align 16 %7, ptr align 16 @__const.create_a_psk.key, i64 48, i1 false)
  call void @llvm.lifetime.start.p0(i64 8, ptr %8) #10
  store ptr null, ptr %8, align 8, !tbaa !89
  %10 = load i64, ptr %5, align 8, !tbaa !15
  %11 = icmp eq i64 %10, 48
  br i1 %11, label %12, label %15

12:                                               ; preds = %2
  %13 = load ptr, ptr %4, align 8, !tbaa !79
  %14 = call ptr @SSL_CIPHER_find(ptr noundef %13, ptr noundef @.str.73)
  store ptr %14, ptr %6, align 8, !tbaa !87
  br label %23

15:                                               ; preds = %2
  %16 = load i64, ptr %5, align 8, !tbaa !15
  %17 = icmp eq i64 %16, 32
  br i1 %17, label %18, label %21

18:                                               ; preds = %15
  %19 = load ptr, ptr %4, align 8, !tbaa !79
  %20 = call ptr @SSL_CIPHER_find(ptr noundef %19, ptr noundef @.str.74)
  store ptr %20, ptr %6, align 8, !tbaa !87
  br label %22

21:                                               ; preds = %15
  store ptr null, ptr %3, align 8
  store i32 1, ptr %9, align 4
  br label %60

22:                                               ; preds = %18
  br label %23

23:                                               ; preds = %22, %12
  %24 = call ptr @SSL_SESSION_new()
  store ptr %24, ptr %8, align 8, !tbaa !89
  %25 = load ptr, ptr %8, align 8, !tbaa !89
  %26 = call i32 @test_ptr(ptr noundef @.str.1, i32 noundef 1404, ptr noundef @.str.75, ptr noundef %25)
  %27 = icmp ne i32 %26, 0
  br i1 %27, label %28, label %56

28:                                               ; preds = %23
  %29 = load ptr, ptr %6, align 8, !tbaa !87
  %30 = call i32 @test_ptr(ptr noundef @.str.1, i32 noundef 1405, ptr noundef @.str.76, ptr noundef %29)
  %31 = icmp ne i32 %30, 0
  br i1 %31, label %32, label %56

32:                                               ; preds = %28
  %33 = load ptr, ptr %8, align 8, !tbaa !89
  %34 = getelementptr inbounds [48 x i8], ptr %7, i64 0, i64 0
  %35 = load i64, ptr %5, align 8, !tbaa !15
  %36 = call i32 @SSL_SESSION_set1_master_key(ptr noundef %33, ptr noundef %34, i64 noundef %35)
  %37 = icmp ne i32 %36, 0
  %38 = zext i1 %37 to i32
  %39 = call i32 @test_true(ptr noundef @.str.1, i32 noundef 1406, ptr noundef @.str.77, i32 noundef %38)
  %40 = icmp ne i32 %39, 0
  br i1 %40, label %41, label %56

41:                                               ; preds = %32
  %42 = load ptr, ptr %8, align 8, !tbaa !89
  %43 = load ptr, ptr %6, align 8, !tbaa !87
  %44 = call i32 @SSL_SESSION_set_cipher(ptr noundef %42, ptr noundef %43)
  %45 = icmp ne i32 %44, 0
  %46 = zext i1 %45 to i32
  %47 = call i32 @test_true(ptr noundef @.str.1, i32 noundef 1407, ptr noundef @.str.78, i32 noundef %46)
  %48 = icmp ne i32 %47, 0
  br i1 %48, label %49, label %56

49:                                               ; preds = %41
  %50 = load ptr, ptr %8, align 8, !tbaa !89
  %51 = call i32 @SSL_SESSION_set_protocol_version(ptr noundef %50, i32 noundef 772)
  %52 = icmp ne i32 %51, 0
  %53 = zext i1 %52 to i32
  %54 = call i32 @test_true(ptr noundef @.str.1, i32 noundef 1410, ptr noundef @.str.79, i32 noundef %53)
  %55 = icmp ne i32 %54, 0
  br i1 %55, label %58, label %56

56:                                               ; preds = %49, %41, %32, %28, %23
  %57 = load ptr, ptr %8, align 8, !tbaa !89
  call void @SSL_SESSION_free(ptr noundef %57)
  store ptr null, ptr %3, align 8
  store i32 1, ptr %9, align 4
  br label %60

58:                                               ; preds = %49
  %59 = load ptr, ptr %8, align 8, !tbaa !89
  store ptr %59, ptr %3, align 8
  store i32 1, ptr %9, align 4
  br label %60

60:                                               ; preds = %58, %56, %21
  call void @llvm.lifetime.end.p0(i64 8, ptr %8) #10
  call void @llvm.lifetime.end.p0(i64 48, ptr %7) #10
  call void @llvm.lifetime.end.p0(i64 8, ptr %6) #10
  %61 = load ptr, ptr %3, align 8
  ret ptr %61
}