; Function Attrs: nounwind uwtable
define dso_local noundef ptr @create_a_psk(ptr noundef %0, i64 noundef %1) local_unnamed_addr #0 {
  %3 = alloca [48 x i8], align 16
  call void @llvm.lifetime.start.p0(i64 48, ptr nonnull %3) #14
  call void @llvm.memcpy.p0.p0.i64(ptr noundef nonnull align 16 dereferenceable(48) %3, ptr noundef nonnull align 16 dereferenceable(48) @__const.create_a_psk.key, i64 48, i1 false)
  switch i64 %1, label %27 [
    i64 48, label %5
    i64 32, label %4
  ]

4:                                                ; preds = %2
  br label %5

5:                                                ; preds = %2, %4
  %.str.74.sink = phi ptr [ @.str.74, %4 ], [ @.str.73, %2 ]
  %6 = tail call ptr @SSL_CIPHER_find(ptr noundef %0, ptr noundef nonnull %.str.74.sink) #14
  %7 = tail call ptr @SSL_SESSION_new() #14
  %8 = tail call i32 @test_ptr(ptr noundef nonnull @.str.1, i32 noundef 1404, ptr noundef nonnull @.str.75, ptr noundef %7) #14
  %.not = icmp eq i32 %8, 0
  br i1 %.not, label %26, label %9

9:                                                ; preds = %5
  %10 = tail call i32 @test_ptr(ptr noundef nonnull @.str.1, i32 noundef 1405, ptr noundef nonnull @.str.76, ptr noundef %6) #14
  %.not15 = icmp eq i32 %10, 0
  br i1 %.not15, label %26, label %11

11:                                               ; preds = %9
  %12 = call i32 @SSL_SESSION_set1_master_key(ptr noundef %7, ptr noundef nonnull %3, i64 noundef %1) #14
  %13 = icmp ne i32 %12, 0
  %14 = zext i1 %13 to i32
  %15 = call i32 @test_true(ptr noundef nonnull @.str.1, i32 noundef 1406, ptr noundef nonnull @.str.77, i32 noundef %14) #14
  %.not16 = icmp eq i32 %15, 0
  br i1 %.not16, label %26, label %16

16:                                               ; preds = %11
  %17 = call i32 @SSL_SESSION_set_cipher(ptr noundef %7, ptr noundef %6) #14
  %18 = icmp ne i32 %17, 0
  %19 = zext i1 %18 to i32
  %20 = call i32 @test_true(ptr noundef nonnull @.str.1, i32 noundef 1407, ptr noundef nonnull @.str.78, i32 noundef %19) #14
  %.not17 = icmp eq i32 %20, 0
  br i1 %.not17, label %26, label %21

21:                                               ; preds = %16
  %22 = call i32 @SSL_SESSION_set_protocol_version(ptr noundef %7, i32 noundef 772) #14
  %23 = icmp ne i32 %22, 0
  %24 = zext i1 %23 to i32
  %25 = call i32 @test_true(ptr noundef nonnull @.str.1, i32 noundef 1410, ptr noundef nonnull @.str.79, i32 noundef %24) #14
  %.not18 = icmp eq i32 %25, 0
  br i1 %.not18, label %26, label %27

26:                                               ; preds = %21, %16, %11, %9, %5
  call void @SSL_SESSION_free(ptr noundef %7) #14
  br label %27

27:                                               ; preds = %21, %2, %26
  %.013 = phi ptr [ null, %26 ], [ null, %2 ], [ %7, %21 ]
  call void @llvm.lifetime.end.p0(i64 48, ptr nonnull %3) #14
  ret ptr %.013
}